; Function Attrs: nounwind uwtable
define hidden range(i32 -1, 1) i32 @validate_timestamp_and_record(ptr noundef captures(none) %0, ptr noundef captures(none) %1) local_unnamed_addr #0 {
  %3 = getelementptr inbounds nuw i8, ptr %0, i64 392
  %4 = load i64, ptr %3, align 8, !tbaa !124
  %5 = icmp eq i64 %4, 0
  br i1 %5, label %20, label %6

6:                                                ; preds = %2
  %7 = load i64, ptr getelementptr inbounds nuw (i8, ptr @accel_globals, i64 64), align 8, !tbaa !138
  %.not = icmp eq i64 %7, 0
  br i1 %.not, label %12, label %8

8:                                                ; preds = %6
  %9 = getelementptr inbounds nuw i8, ptr %0, i64 472
  %10 = load i64, ptr %9, align 8, !tbaa !139
  %11 = load i64, ptr getelementptr inbounds nuw (i8, ptr @accel_globals, i64 288), align 8, !tbaa !140
  %.not5 = icmp slt i64 %10, %11
  br i1 %.not5, label %12, label %20

12:                                               ; preds = %8, %6
  %13 = tail call fastcc i32 @do_validate_timestamps(ptr noundef nonnull %0, ptr noundef %1)
  %14 = icmp eq i32 %13, -1
  br i1 %14, label %20, label %15

15:                                               ; preds = %12
  %16 = load i64, ptr getelementptr inbounds nuw (i8, ptr @accel_globals, i64 288), align 8, !tbaa !140
  %17 = load i64, ptr getelementptr inbounds nuw (i8, ptr @accel_globals, i64 64), align 8, !tbaa !138
  %18 = add i64 %17, %16
  %19 = getelementptr inbounds nuw i8, ptr %0, i64 472
  store i64 %18, ptr %19, align 8, !tbaa !139
  br label %20

20:                                               ; preds = %12, %8, %2, %15
  %.0 = phi i32 [ 0, %15 ], [ 0, %2 ], [ 0, %8 ], [ -1, %12 ]
  ret i32 %.0
}